target datalayout = "e-m:e-p270:32:32-p271:32:32-p272:64:64-i64:64-i128:128-f80:128-n8:16:32:64-S128"
target triple = "x86_64-unknown-linux-gnu"

%struct.dictType = type { ptr, ptr, ptr, ptr, ptr, ptr, ptr, ptr, ptr, ptr, i8 }
%struct.typeInterface = type { ptr, ptr, ptr, ptr, ptr }
%struct.standardConfig = type { ptr, ptr, i32, %struct.typeInterface, %union.typeData, i32, ptr }
%union.typeData = type { %struct.numericConfigData }
%struct.numericConfigData = type { %union.anon, i32, i32, i64, i64, i64, ptr }
%union.anon = type { ptr }
%struct.sdshdr8 = type { i8, i8, i8, [0 x i8] }
%struct.sdshdr16 = type <{ i16, i16, i8, [0 x i8] }>
%struct.sdshdr32 = type <{ i32, i32, i8, [0 x i8] }>
%struct.sdshdr64 = type <{ i64, i64, i8, [0 x i8] }>
%struct.rewriteConfigState = type { ptr, ptr, i32, ptr, i32, i32 }

@configs = dso_local global ptr null, align 8
@.str.55 = private unnamed_addr constant [2 x i8] c"\0A\00", align 1
@optionToLineDictType = dso_local global %struct.dictType { ptr @dictSdsCaseHash, ptr null, ptr null, ptr @dictSdsKeyCaseCompare, ptr @dictSdsDestructor, ptr @dictListDestructor, ptr null, ptr null, ptr null, ptr null, i8 0 }, align 8
@optionSetDictType = dso_local global %struct.dictType { ptr @dictSdsCaseHash, ptr null, ptr null, ptr @dictSdsKeyCaseCompare, ptr @dictSdsDestructor, ptr null, ptr null, ptr null, ptr null, ptr null, i8 0 }, align 8

; Function Attrs: nounwind uwtable
define internal i64 @sdslen(ptr noundef %s) #0 {
entry:
  %retval = alloca i64, align 8
  %s.addr = alloca ptr, align 8
  %flags = alloca i8, align 1
  store ptr %s, ptr %s.addr, align 8
  %0 = load ptr, ptr %s.addr, align 8
  %arrayidx = getelementptr inbounds i8, ptr %0, i64 -1
  %1 = load i8, ptr %arrayidx, align 1
  store i8 %1, ptr %flags, align 1
  %2 = load i8, ptr %flags, align 1
  %conv = zext i8 %2 to i32
  %and = and i32 %conv, 7
  switch i32 %and, label %sw.epilog [
    i32 0, label %sw.bb
    i32 1, label %sw.bb3
    i32 2, label %sw.bb5
    i32 3, label %sw.bb9
    i32 4, label %sw.bb13
  ]

sw.bb:                                            ; preds = %entry
  %3 = load i8, ptr %flags, align 1
  %conv1 = zext i8 %3 to i32
  %shr = ashr i32 %conv1, 3
  %conv2 = sext i32 %shr to i64
  store i64 %conv2, ptr %retval, align 8
  br label %return

sw.bb3:                                           ; preds = %entry
  %4 = load ptr, ptr %s.addr, align 8
  %add.ptr = getelementptr inbounds i8, ptr %4, i64 -3
  %len = getelementptr inbounds %struct.sdshdr8, ptr %add.ptr, i32 0, i32 0
  %5 = load i8, ptr %len, align 1
  %conv4 = zext i8 %5 to i64
  store i64 %conv4, ptr %retval, align 8
  br label %return

sw.bb5:                                           ; preds = %entry
  %6 = load ptr, ptr %s.addr, align 8
  %add.ptr6 = getelementptr inbounds i8, ptr %6, i64 -5
  %len7 = getelementptr inbounds %struct.sdshdr16, ptr %add.ptr6, i32 0, i32 0
  %7 = load i16, ptr %len7, align 1
  %conv8 = zext i16 %7 to i64
  store i64 %conv8, ptr %retval, align 8
  br label %return

sw.bb9:                                           ; preds = %entry
  %8 = load ptr, ptr %s.addr, align 8
  %add.ptr10 = getelementptr inbounds i8, ptr %8, i64 -9
  %len11 = getelementptr inbounds %struct.sdshdr32, ptr %add.ptr10, i32 0, i32 0
  %9 = load i32, ptr %len11, align 1
  %conv12 = zext i32 %9 to i64
  store i64 %conv12, ptr %retval, align 8
  br label %return

sw.bb13:                                          ; preds = %entry
  %10 = load ptr, ptr %s.addr, align 8
  %add.ptr14 = getelementptr inbounds i8, ptr %10, i64 -17
  %len15 = getelementptr inbounds %struct.sdshdr64, ptr %add.ptr14, i32 0, i32 0
  %11 = load i64, ptr %len15, align 1
  store i64 %11, ptr %retval, align 8
  br label %return

sw.epilog:                                        ; preds = %entry
  store i64 0, ptr %retval, align 8
  br label %return

return:                                           ; preds = %sw.epilog, %sw.bb13, %sw.bb9, %sw.bb5, %sw.bb3, %sw.bb
  %12 = load i64, ptr %retval, align 8
  ret i64 %12
}

; Function Attrs: nounwind uwtable
define dso_local void @rewriteConfigReleaseState(ptr noundef %state) #0 {
entry:
  %state.addr = alloca ptr, align 8
  store ptr %state, ptr %state.addr, align 8
  %0 = load ptr, ptr %state.addr, align 8
  %lines = getelementptr inbounds %struct.rewriteConfigState, ptr %0, i32 0, i32 3
  %1 = load ptr, ptr %lines, align 8
  %2 = load ptr, ptr %state.addr, align 8
  %numlines = getelementptr inbounds %struct.rewriteConfigState, ptr %2, i32 0, i32 2
  %3 = load i32, ptr %numlines, align 8
  call void @sdsfreesplitres(ptr noundef %1, i32 noundef %3)
  %4 = load ptr, ptr %state.addr, align 8
  %option_to_line = getelementptr inbounds %struct.rewriteConfigState, ptr %4, i32 0, i32 0
  %5 = load ptr, ptr %option_to_line, align 8
  call void @dictRelease(ptr noundef %5)
  %6 = load ptr, ptr %state.addr, align 8
  %rewritten = getelementptr inbounds %struct.rewriteConfigState, ptr %6, i32 0, i32 1
  %7 = load ptr, ptr %rewritten, align 8
  call void @dictRelease(ptr noundef %7)
  %8 = load ptr, ptr %state.addr, align 8
  call void @zfree(ptr noundef %8)
  ret void
}

; Function Attrs: nounwind uwtable
define dso_local ptr @rewriteConfigGetContentFromState(ptr noundef %state) #0 {
entry:
  %state.addr = alloca ptr, align 8
  %content = alloca ptr, align 8
  %j = alloca i32, align 4
  %was_empty = alloca i32, align 4
  store ptr %state, ptr %state.addr, align 8
  %call = call ptr @sdsempty()
  store ptr %call, ptr %content, align 8
  store i32 0, ptr %was_empty, align 4
  store i32 0, ptr %j, align 4
  br label %for.cond

for.cond:                                         ; preds = %for.inc, %entry
  %0 = load i32, ptr %j, align 4
  %1 = load ptr, ptr %state.addr, align 8
  %numlines = getelementptr inbounds %struct.rewriteConfigState, ptr %1, i32 0, i32 2
  %2 = load i32, ptr %numlines, align 8
  %cmp = icmp slt i32 %0, %2
  br i1 %cmp, label %for.body, label %for.end

for.body:                                         ; preds = %for.cond
  %3 = load ptr, ptr %state.addr, align 8
  %lines = getelementptr inbounds %struct.rewriteConfigState, ptr %3, i32 0, i32 3
  %4 = load ptr, ptr %lines, align 8
  %5 = load i32, ptr %j, align 4
  %idxprom = sext i32 %5 to i64
  %arrayidx = getelementptr inbounds ptr, ptr %4, i64 %idxprom
  %6 = load ptr, ptr %arrayidx, align 8
  %call1 = call i64 @sdslen(ptr noundef %6)
  %cmp2 = icmp eq i64 %call1, 0
  br i1 %cmp2, label %if.then, label %if.else

if.then:                                          ; preds = %for.body
  %7 = load i32, ptr %was_empty, align 4
  %tobool = icmp ne i32 %7, 0
  br i1 %tobool, label %if.then3, label %if.end

if.then3:                                         ; preds = %if.then
  br label %for.inc

if.end:                                           ; preds = %if.then
  store i32 1, ptr %was_empty, align 4
  br label %if.end4

if.else:                                          ; preds = %for.body
  store i32 0, ptr %was_empty, align 4
  br label %if.end4

if.end4:                                          ; preds = %if.else, %if.end
  %8 = load ptr, ptr %content, align 8
  %9 = load ptr, ptr %state.addr, align 8
  %lines5 = getelementptr inbounds %struct.rewriteConfigState, ptr %9, i32 0, i32 3
  %10 = load ptr, ptr %lines5, align 8
  %11 = load i32, ptr %j, align 4
  %idxprom6 = sext i32 %11 to i64
  %arrayidx7 = getelementptr inbounds ptr, ptr %10, i64 %idxprom6
  %12 = load ptr, ptr %arrayidx7, align 8
  %call8 = call ptr @sdscatsds(ptr noundef %8, ptr noundef %12)
  store ptr %call8, ptr %content, align 8
  %13 = load ptr, ptr %content, align 8
  %call9 = call ptr @sdscatlen(ptr noundef %13, ptr noundef @.str.55, i64 noundef 1)
  store ptr %call9, ptr %content, align 8
  br label %for.inc

for.inc:                                          ; preds = %if.end4, %if.then3
  %14 = load i32, ptr %j, align 4
  %inc = add nsw i32 %14, 1
  store i32 %inc, ptr %j, align 4
  br label %for.cond, !llvm.loop !38

for.end:                                          ; preds = %for.cond
  %15 = load ptr, ptr %content, align 8
  ret ptr %15
}

; Function Attrs: nounwind uwtable
define dso_local ptr @rewriteConfigCreateState() #0 {
entry:
  %state = alloca ptr, align 8
  %call = call noalias ptr @zmalloc(i64 noundef 40) #13
  store ptr %call, ptr %state, align 8
  %call1 = call ptr @dictCreate(ptr noundef @optionToLineDictType)
  %0 = load ptr, ptr %state, align 8
  %option_to_line = getelementptr inbounds %struct.rewriteConfigState, ptr %0, i32 0, i32 0
  store ptr %call1, ptr %option_to_line, align 8
  %call2 = call ptr @dictCreate(ptr noundef @optionSetDictType)
  %1 = load ptr, ptr %state, align 8
  %rewritten = getelementptr inbounds %struct.rewriteConfigState, ptr %1, i32 0, i32 1
  store ptr %call2, ptr %rewritten, align 8
  %2 = load ptr, ptr %state, align 8
  %numlines = getelementptr inbounds %struct.rewriteConfigState, ptr %2, i32 0, i32 2
  store i32 0, ptr %numlines, align 8
  %3 = load ptr, ptr %state, align 8
  %lines = getelementptr inbounds %struct.rewriteConfigState, ptr %3, i32 0, i32 3
  store ptr null, ptr %lines, align 8
  %4 = load ptr, ptr %state, align 8
  %needs_signature = getelementptr inbounds %struct.rewriteConfigState, ptr %4, i32 0, i32 4
  store i32 1, ptr %needs_signature, align 8
  %5 = load ptr, ptr %state, align 8
  %force_write = getelementptr inbounds %struct.rewriteConfigState, ptr %5, i32 0, i32 5
  store i32 0, ptr %force_write, align 4
  %6 = load ptr, ptr %state, align 8
  ret ptr %6
}

; Function Attrs: nounwind uwtable
define dso_local ptr @getConfigDebugInfo() #0 {
entry:
  %state = alloca ptr, align 8
  %di = alloca ptr, align 8
  %de = alloca ptr, align 8
  %config = alloca ptr, align 8
  %info = alloca ptr, align 8
  %call = call ptr @rewriteConfigCreateState()
  store ptr %call, ptr %state, align 8
  %0 = load ptr, ptr %state, align 8
  %force_write = getelementptr inbounds %struct.rewriteConfigState, ptr %0, i32 0, i32 5
  store i32 1, ptr %force_write, align 4
  %1 = load ptr, ptr %state, align 8
  %needs_signature = getelementptr inbounds %struct.rewriteConfigState, ptr %1, i32 0, i32 4
  store i32 0, ptr %needs_signature, align 8
  %2 = load ptr, ptr @configs, align 8
  %call1 = call ptr @dictGetIterator(ptr noundef %2)
  store ptr %call1, ptr %di, align 8
  br label %while.cond

while.cond:                                       ; preds = %if.end, %if.then, %entry
  %3 = load ptr, ptr %di, align 8
  %call2 = call ptr @dictNext(ptr noundef %3)
  store ptr %call2, ptr %de, align 8
  %cmp = icmp ne ptr %call2, null
  br i1 %cmp, label %while.body, label %while.end

while.body:                                       ; preds = %while.cond
  %4 = load ptr, ptr %de, align 8
  %call3 = call ptr @dictGetVal(ptr noundef %4)
  store ptr %call3, ptr %config, align 8
  %5 = load ptr, ptr %config, align 8
  %flags = getelementptr inbounds %struct.standardConfig, ptr %5, i32 0, i32 2
  %6 = load i32, ptr %flags, align 8
  %conv = zext i32 %6 to i64
  %and = and i64 %conv, 4
  %tobool = icmp ne i64 %and, 0
  br i1 %tobool, label %if.end, label %if.then

if.then:                                          ; preds = %while.body
  br label %while.cond, !llvm.loop !41

if.end:                                           ; preds = %while.body
  %7 = load ptr, ptr %config, align 8
  %interface = getelementptr inbounds %struct.standardConfig, ptr %7, i32 0, i32 3
  %rewrite = getelementptr inbounds %struct.typeInterface, ptr %interface, i32 0, i32 4
  %8 = load ptr, ptr %rewrite, align 8
  %9 = load ptr, ptr %config, align 8
  %10 = load ptr, ptr %config, align 8
  %name = getelementptr inbounds %struct.standardConfig, ptr %10, i32 0, i32 0
  %11 = load ptr, ptr %name, align 8
  %12 = load ptr, ptr %state, align 8
  call void %8(ptr noundef %9, ptr noundef %11, ptr noundef %12)
  br label %while.cond, !llvm.loop !41

while.end:                                        ; preds = %while.cond
  %13 = load ptr, ptr %di, align 8
  call void @dictReleaseIterator(ptr noundef %13)
  %14 = load ptr, ptr %state, align 8
  %call4 = call ptr @rewriteConfigGetContentFromState(ptr noundef %14)
  store ptr %call4, ptr %info, align 8
  %15 = load ptr, ptr %state, align 8
  call void @rewriteConfigReleaseState(ptr noundef %15)
  %16 = load ptr, ptr %info, align 8
  ret ptr %16
}