; Function Attrs: nounwind uwtable
define dso_local ptr @getConfigDebugInfo() local_unnamed_addr #2 {
entry:
  %call.i = tail call noalias dereferenceable_or_null(40) ptr @zmalloc(i64 noundef 40) #27
  %call1.i = tail call ptr @dictCreate(ptr noundef nonnull @optionToLineDictType) #24
  store ptr %call1.i, ptr %call.i, align 8
  %call2.i = tail call ptr @dictCreate(ptr noundef nonnull @optionSetDictType) #24
  %rewritten.i = getelementptr inbounds i8, ptr %call.i, i64 8
  store ptr %call2.i, ptr %rewritten.i, align 8
  %numlines.i = getelementptr inbounds i8, ptr %call.i, i64 16
  store i32 0, ptr %numlines.i, align 8
  %lines.i = getelementptr inbounds i8, ptr %call.i, i64 24
  store ptr null, ptr %lines.i, align 8
  %needs_signature.i = getelementptr inbounds i8, ptr %call.i, i64 32
  %force_write.i = getelementptr inbounds i8, ptr %call.i, i64 36
  store i32 1, ptr %force_write.i, align 4
  store i32 0, ptr %needs_signature.i, align 8
  %0 = load ptr, ptr @configs, align 8
  %call1 = tail call ptr @dictGetIterator(ptr noundef %0) #24
  %call215 = tail call ptr @dictNext(ptr noundef %call1) #24
  %cmp.not16 = icmp eq ptr %call215, null
  br i1 %cmp.not16, label %while.end, label %while.body

while.body:                                       ; preds = %entry, %while.cond.backedge
  %call217 = phi ptr [ %call2, %while.cond.backedge ], [ %call215, %entry ]
  %call3 = tail call ptr @dictGetVal(ptr noundef nonnull %call217) #24
  %flags = getelementptr inbounds i8, ptr %call3, i64 16
  %1 = load i32, ptr %flags, align 8
  %2 = and i32 %1, 4
  %tobool.not = icmp eq i32 %2, 0
  br i1 %tobool.not, label %while.cond.backedge, label %if.end

if.end:                                           ; preds = %while.body
  %rewrite = getelementptr inbounds i8, ptr %call3, i64 56
  %3 = load ptr, ptr %rewrite, align 8
  %4 = load ptr, ptr %call3, align 8
  tail call void %3(ptr noundef nonnull %call3, ptr noundef %4, ptr noundef nonnull %call.i) #24
  br label %while.cond.backedge

while.cond.backedge:                              ; preds = %if.end, %while.body
  %call2 = tail call ptr @dictNext(ptr noundef %call1) #24
  %cmp.not = icmp eq ptr %call2, null
  br i1 %cmp.not, label %while.end, label %while.body, !llvm.loop !41

while.end:                                        ; preds = %while.cond.backedge, %entry
  tail call void @dictReleaseIterator(ptr noundef %call1) #24
  %call.i9 = tail call ptr @sdsempty() #24
  %5 = load i32, ptr %numlines.i, align 8
  %cmp10.i = icmp sgt i32 %5, 0
  br i1 %cmp10.i, label %for.body.i, label %rewriteConfigGetContentFromState.exit

for.body.i:                                       ; preds = %while.end, %for.inc.i
  %6 = phi i32 [ %14, %for.inc.i ], [ %5, %while.end ]
  %indvars.iv.i = phi i64 [ %indvars.iv.next.i, %for.inc.i ], [ 0, %while.end ]
  %was_empty.013.i = phi i32 [ %was_empty.2.i, %for.inc.i ], [ 0, %while.end ]
  %content.011.i = phi ptr [ %content.1.i, %for.inc.i ], [ %call.i9, %while.end ]
  %7 = load ptr, ptr %lines.i, align 8
  %arrayidx.i = getelementptr inbounds ptr, ptr %7, i64 %indvars.iv.i
  %8 = load ptr, ptr %arrayidx.i, align 8
  %arrayidx.i.i = getelementptr inbounds i8, ptr %8, i64 -1
  %9 = load i8, ptr %arrayidx.i.i, align 1
  %conv.i.i = zext i8 %9 to i32
  %and.i.i = and i32 %conv.i.i, 7
  switch i32 %and.i.i, label %if.then.i [
    i32 0, label %sw.bb.i.i
    i32 1, label %sw.bb3.i.i
    i32 2, label %sw.bb5.i.i
    i32 3, label %sw.bb9.i.i
    i32 4, label %sw.bb13.i.i
  ]

sw.bb.i.i:                                        ; preds = %for.body.i
  %shr.i.i = lshr i32 %conv.i.i, 3
  %conv2.i.i = zext nneg i32 %shr.i.i to i64
  br label %sdslen.exit.i

sw.bb3.i.i:                                       ; preds = %for.body.i
  %add.ptr.i.i = getelementptr inbounds i8, ptr %8, i64 -3
  %10 = load i8, ptr %add.ptr.i.i, align 1
  %conv4.i.i = zext i8 %10 to i64
  br label %sdslen.exit.i

sw.bb5.i.i:                                       ; preds = %for.body.i
  %add.ptr6.i.i = getelementptr inbounds i8, ptr %8, i64 -5
  %11 = load i16, ptr %add.ptr6.i.i, align 1
  %conv8.i.i = zext i16 %11 to i64
  br label %sdslen.exit.i

sw.bb9.i.i:                                       ; preds = %for.body.i
  %add.ptr10.i.i = getelementptr inbounds i8, ptr %8, i64 -9
  %12 = load i32, ptr %add.ptr10.i.i, align 1
  %conv12.i.i = zext i32 %12 to i64
  br label %sdslen.exit.i

sw.bb13.i.i:                                      ; preds = %for.body.i
  %add.ptr14.i.i = getelementptr inbounds i8, ptr %8, i64 -17
  %13 = load i64, ptr %add.ptr14.i.i, align 1
  br label %sdslen.exit.i

sdslen.exit.i:                                    ; preds = %sw.bb13.i.i, %sw.bb9.i.i, %sw.bb5.i.i, %sw.bb3.i.i, %sw.bb.i.i
  %retval.0.i.i = phi i64 [ %13, %sw.bb13.i.i ], [ %conv12.i.i, %sw.bb9.i.i ], [ %conv8.i.i, %sw.bb5.i.i ], [ %conv4.i.i, %sw.bb3.i.i ], [ %conv2.i.i, %sw.bb.i.i ]
  %cmp2.i = icmp eq i64 %retval.0.i.i, 0
  br i1 %cmp2.i, label %if.then.i, label %if.end4.i

if.then.i:                                        ; preds = %sdslen.exit.i, %for.body.i
  %tobool.not.i = icmp eq i32 %was_empty.013.i, 0
  br i1 %tobool.not.i, label %if.end4.i, label %for.inc.i

if.end4.i:                                        ; preds = %if.then.i, %sdslen.exit.i
  %was_empty.1.i = phi i32 [ 1, %if.then.i ], [ 0, %sdslen.exit.i ]
  %call8.i = tail call ptr @sdscatsds(ptr noundef %content.011.i, ptr noundef nonnull %8) #24
  %call9.i = tail call ptr @sdscatlen(ptr noundef %call8.i, ptr noundef nonnull @.str.55, i64 noundef 1) #24
  %.pre.i = load i32, ptr %numlines.i, align 8
  br label %for.inc.i

for.inc.i:                                        ; preds = %if.end4.i, %if.then.i
  %14 = phi i32 [ %6, %if.then.i ], [ %.pre.i, %if.end4.i ]
  %content.1.i = phi ptr [ %content.011.i, %if.then.i ], [ %call9.i, %if.end4.i ]
  %was_empty.2.i = phi i32 [ 1, %if.then.i ], [ %was_empty.1.i, %if.end4.i ]
  %indvars.iv.next.i = add nuw nsw i64 %indvars.iv.i, 1
  %15 = sext i32 %14 to i64
  %cmp.i = icmp slt i64 %indvars.iv.next.i, %15
  br i1 %cmp.i, label %for.body.i, label %rewriteConfigGetContentFromState.exit, !llvm.loop !38

rewriteConfigGetContentFromState.exit:            ; preds = %for.inc.i, %while.end
  %16 = phi i32 [ %5, %while.end ], [ %14, %for.inc.i ]
  %content.0.lcssa.i = phi ptr [ %call.i9, %while.end ], [ %content.1.i, %for.inc.i ]
  %17 = load ptr, ptr %lines.i, align 8
  tail call void @sdsfreesplitres(ptr noundef %17, i32 noundef %16) #24
  %18 = load ptr, ptr %call.i, align 8
  tail call void @dictRelease(ptr noundef %18) #24
  %19 = load ptr, ptr %rewritten.i, align 8
  tail call void @dictRelease(ptr noundef %19) #24
  tail call void @zfree(ptr noundef nonnull %call.i) #24
  ret ptr %content.0.lcssa.i
}